; Function Attrs: uwtable
define range(i32 -4, 1) i32 @faiss_IndexPreTransform_new_with_transform(ptr noundef writeonly captures(none) %0, ptr noundef %1, ptr noundef %2) local_unnamed_addr #8 personality ptr @__gxx_personality_v0 {
  %4 = alloca %"class.std::__exception_ptr::exception_ptr", align 8
  %5 = alloca %"class.std::__exception_ptr::exception_ptr", align 8
  %6 = alloca %"class.std::__exception_ptr::exception_ptr", align 8
  %7 = alloca %"class.std::__exception_ptr::exception_ptr", align 8
  %8 = alloca %"class.std::runtime_error", align 8
  %9 = alloca %"class.std::__exception_ptr::exception_ptr", align 8
  %10 = alloca %"class.std::exception", align 8
  %11 = alloca %"class.std::__exception_ptr::exception_ptr", align 8
  %12 = alloca %"class.faiss::FaissException", align 8
  %13 = invoke noalias noundef nonnull dereferenceable(80) ptr @_Znwm(i64 noundef 80) #22
          to label %14 unwind label %16

14:                                               ; preds = %3
  invoke void @_ZN5faiss17IndexPreTransformC1EPNS_15VectorTransformEPNS_5IndexE(ptr noundef nonnull align 8 dereferenceable(73) %13, ptr noundef %1, ptr noundef %2)
          to label %15 unwind label %18

15:                                               ; preds = %14
  store ptr %13, ptr %0, align 8, !tbaa !25
  br label %52

16:                                               ; preds = %3
  %17 = landingpad { ptr, i32 }
          catch ptr @_ZTIN5faiss14FaissExceptionE
          catch ptr @_ZTISt9exception
          catch ptr null
  br label %20

18:                                               ; preds = %14
  %19 = landingpad { ptr, i32 }
          catch ptr @_ZTIN5faiss14FaissExceptionE
          catch ptr @_ZTISt9exception
          catch ptr null
  tail call void @_ZdlPvm(ptr noundef nonnull %13, i64 noundef 80) #23
  br label %20

20:                                               ; preds = %18, %16
  %.pn = phi { ptr, i32 } [ %19, %18 ], [ %17, %16 ]
  %.013 = extractvalue { ptr, i32 } %.pn, 0
  %.014 = extractvalue { ptr, i32 } %.pn, 1
  %21 = tail call i32 @llvm.eh.typeid.for.p0(ptr nonnull @_ZTIN5faiss14FaissExceptionE) #21
  %22 = icmp eq i32 %.014, %21
  br i1 %22, label %23, label %31

23:                                               ; preds = %20
  %24 = tail call ptr @__cxa_begin_catch(ptr %.013) #21
  call void @llvm.lifetime.start.p0(i64 8, ptr nonnull %11) #21
  invoke void @_ZN5faiss14FaissExceptionC2ERKS0_(ptr noundef nonnull align 8 dereferenceable(40) %12, ptr noundef nonnull align 8 dereferenceable(40) %24)
          to label %25 unwind label %50

25:                                               ; preds = %23
  call void @_ZSt18make_exception_ptrIN5faiss14FaissExceptionEENSt15__exception_ptr13exception_ptrET_(ptr dead_on_unwind nonnull writable sret(%"class.std::__exception_ptr::exception_ptr") align 8 %11, ptr noundef nonnull %12) #21
  %.not.i = icmp eq ptr @_ZTH20faiss_last_exception, null
  br i1 %.not.i, label %_ZTW20faiss_last_exception.exit, label %26

26:                                               ; preds = %25
  call void @_ZTH20faiss_last_exception()
  br label %_ZTW20faiss_last_exception.exit

_ZTW20faiss_last_exception.exit:                  ; preds = %25, %26
  %27 = call noundef align 8 ptr @llvm.threadlocal.address.p0(ptr align 8 @faiss_last_exception)
  call void @llvm.lifetime.start.p0(i64 8, ptr nonnull %6) #21
  %28 = load ptr, ptr %11, align 8, !tbaa !27
  store ptr null, ptr %11, align 8, !tbaa !27
  %29 = load ptr, ptr %27, align 8, !tbaa !27
  store ptr %29, ptr %6, align 8, !tbaa !27
  store ptr %28, ptr %27, align 8, !tbaa !27
  %.not.i.i = icmp eq ptr %29, null
  br i1 %.not.i.i, label %_ZNSt15__exception_ptr13exception_ptraSEOS0_.exit.thread, label %_ZNSt15__exception_ptr13exception_ptraSEOS0_.exit

_ZNSt15__exception_ptr13exception_ptraSEOS0_.exit.thread: ; preds = %_ZTW20faiss_last_exception.exit
  call void @llvm.lifetime.end.p0(i64 8, ptr nonnull %6) #21
  br label %_ZNSt15__exception_ptr13exception_ptrD2Ev.exit

_ZNSt15__exception_ptr13exception_ptraSEOS0_.exit: ; preds = %_ZTW20faiss_last_exception.exit
  call void @_ZNSt15__exception_ptr13exception_ptr10_M_releaseEv(ptr noundef nonnull align 8 dereferenceable(8) %6) #21
  %.pr = load ptr, ptr %11, align 8, !tbaa !27
  call void @llvm.lifetime.end.p0(i64 8, ptr nonnull %6) #21
  %.not.i19 = icmp eq ptr %.pr, null
  br i1 %.not.i19, label %_ZNSt15__exception_ptr13exception_ptrD2Ev.exit, label %30

30:                                               ; preds = %_ZNSt15__exception_ptr13exception_ptraSEOS0_.exit
  call void @_ZNSt15__exception_ptr13exception_ptr10_M_releaseEv(ptr noundef nonnull align 8 dereferenceable(8) %11) #21
  br label %_ZNSt15__exception_ptr13exception_ptrD2Ev.exit

_ZNSt15__exception_ptr13exception_ptrD2Ev.exit:   ; preds = %_ZNSt15__exception_ptr13exception_ptraSEOS0_.exit.thread, %_ZNSt15__exception_ptr13exception_ptraSEOS0_.exit, %30
  call void @_ZN5faiss14FaissExceptionD2Ev(ptr noundef nonnull align 8 dereferenceable(40) %12) #21
  call void @llvm.lifetime.end.p0(i64 8, ptr nonnull %11) #21
  call void @__cxa_end_catch()
  br label %52

31:                                               ; preds = %20
  %32 = tail call i32 @llvm.eh.typeid.for.p0(ptr nonnull @_ZTISt9exception) #21
  %33 = icmp eq i32 %.014, %32
  %34 = tail call ptr @__cxa_begin_catch(ptr %.013) #21
  br i1 %33, label %35, label %41

35:                                               ; preds = %31
  call void @llvm.lifetime.start.p0(i64 8, ptr nonnull %9) #21
  store ptr getelementptr inbounds nuw inrange(-16, 24) (i8, ptr @_ZTVSt9exception, i64 16), ptr %10, align 8, !tbaa !3
  call void @_ZSt18make_exception_ptrISt9exceptionENSt15__exception_ptr13exception_ptrET_(ptr dead_on_unwind nonnull writable sret(%"class.std::__exception_ptr::exception_ptr") align 8 %9, ptr noundef nonnull %10) #21
  %.not.i20 = icmp eq ptr @_ZTH20faiss_last_exception, null
  br i1 %.not.i20, label %_ZTW20faiss_last_exception.exit21, label %36

36:                                               ; preds = %35
  call void @_ZTH20faiss_last_exception()
  br label %_ZTW20faiss_last_exception.exit21

_ZTW20faiss_last_exception.exit21:                ; preds = %35, %36
  %37 = call noundef align 8 ptr @llvm.threadlocal.address.p0(ptr align 8 @faiss_last_exception)
  call void @llvm.lifetime.start.p0(i64 8, ptr nonnull %5) #21
  %38 = load ptr, ptr %9, align 8, !tbaa !27
  store ptr null, ptr %9, align 8, !tbaa !27
  %39 = load ptr, ptr %37, align 8, !tbaa !27
  store ptr %39, ptr %5, align 8, !tbaa !27
  store ptr %38, ptr %37, align 8, !tbaa !27
  %.not.i.i22 = icmp eq ptr %39, null
  br i1 %.not.i.i22, label %_ZNSt15__exception_ptr13exception_ptraSEOS0_.exit23.thread, label %_ZNSt15__exception_ptr13exception_ptraSEOS0_.exit23

_ZNSt15__exception_ptr13exception_ptraSEOS0_.exit23.thread: ; preds = %_ZTW20faiss_last_exception.exit21
  call void @llvm.lifetime.end.p0(i64 8, ptr nonnull %5) #21
  br label %_ZNSt15__exception_ptr13exception_ptrD2Ev.exit25

_ZNSt15__exception_ptr13exception_ptraSEOS0_.exit23: ; preds = %_ZTW20faiss_last_exception.exit21
  call void @_ZNSt15__exception_ptr13exception_ptr10_M_releaseEv(ptr noundef nonnull align 8 dereferenceable(8) %5) #21
  %.pr33 = load ptr, ptr %9, align 8, !tbaa !27
  call void @llvm.lifetime.end.p0(i64 8, ptr nonnull %5) #21
  %.not.i24 = icmp eq ptr %.pr33, null
  br i1 %.not.i24, label %_ZNSt15__exception_ptr13exception_ptrD2Ev.exit25, label %40

40:                                               ; preds = %_ZNSt15__exception_ptr13exception_ptraSEOS0_.exit23
  call void @_ZNSt15__exception_ptr13exception_ptr10_M_releaseEv(ptr noundef nonnull align 8 dereferenceable(8) %9) #21
  br label %_ZNSt15__exception_ptr13exception_ptrD2Ev.exit25

_ZNSt15__exception_ptr13exception_ptrD2Ev.exit25: ; preds = %_ZNSt15__exception_ptr13exception_ptraSEOS0_.exit23.thread, %_ZNSt15__exception_ptr13exception_ptraSEOS0_.exit23, %40
  call void @_ZNSt9exceptionD1Ev(ptr noundef nonnull align 8 dereferenceable(8) %10) #21
  call void @llvm.lifetime.end.p0(i64 8, ptr nonnull %9) #21
  call void @__cxa_end_catch()
  br label %52

41:                                               ; preds = %31
  call void @llvm.lifetime.start.p0(i64 8, ptr nonnull %7) #21
  invoke void @_ZNSt13runtime_errorC1EPKc(ptr noundef nonnull align 8 dereferenceable(16) %8, ptr noundef nonnull @.str)
          to label %42 unwind label %48

42:                                               ; preds = %41
  call void @_ZSt18make_exception_ptrISt13runtime_errorENSt15__exception_ptr13exception_ptrET_(ptr dead_on_unwind nonnull writable sret(%"class.std::__exception_ptr::exception_ptr") align 8 %7, ptr noundef nonnull %8) #21
  %.not.i26 = icmp eq ptr @_ZTH20faiss_last_exception, null
  br i1 %.not.i26, label %_ZTW20faiss_last_exception.exit27, label %43

43:                                               ; preds = %42
  call void @_ZTH20faiss_last_exception()
  br label %_ZTW20faiss_last_exception.exit27

_ZTW20faiss_last_exception.exit27:                ; preds = %42, %43
  %44 = call noundef align 8 ptr @llvm.threadlocal.address.p0(ptr align 8 @faiss_last_exception)
  call void @llvm.lifetime.start.p0(i64 8, ptr nonnull %4) #21
  %45 = load ptr, ptr %7, align 8, !tbaa !27
  store ptr null, ptr %7, align 8, !tbaa !27
  %46 = load ptr, ptr %44, align 8, !tbaa !27
  store ptr %46, ptr %4, align 8, !tbaa !27
  store ptr %45, ptr %44, align 8, !tbaa !27
  %.not.i.i28 = icmp eq ptr %46, null
  br i1 %.not.i.i28, label %_ZNSt15__exception_ptr13exception_ptraSEOS0_.exit29.thread, label %_ZNSt15__exception_ptr13exception_ptraSEOS0_.exit29

_ZNSt15__exception_ptr13exception_ptraSEOS0_.exit29.thread: ; preds = %_ZTW20faiss_last_exception.exit27
  call void @llvm.lifetime.end.p0(i64 8, ptr nonnull %4) #21
  br label %_ZNSt15__exception_ptr13exception_ptrD2Ev.exit31

_ZNSt15__exception_ptr13exception_ptraSEOS0_.exit29: ; preds = %_ZTW20faiss_last_exception.exit27
  call void @_ZNSt15__exception_ptr13exception_ptr10_M_releaseEv(ptr noundef nonnull align 8 dereferenceable(8) %4) #21
  %.pr35 = load ptr, ptr %7, align 8, !tbaa !27
  call void @llvm.lifetime.end.p0(i64 8, ptr nonnull %4) #21
  %.not.i30 = icmp eq ptr %.pr35, null
  br i1 %.not.i30, label %_ZNSt15__exception_ptr13exception_ptrD2Ev.exit31, label %47

47:                                               ; preds = %_ZNSt15__exception_ptr13exception_ptraSEOS0_.exit29
  call void @_ZNSt15__exception_ptr13exception_ptr10_M_releaseEv(ptr noundef nonnull align 8 dereferenceable(8) %7) #21
  br label %_ZNSt15__exception_ptr13exception_ptrD2Ev.exit31

_ZNSt15__exception_ptr13exception_ptrD2Ev.exit31: ; preds = %_ZNSt15__exception_ptr13exception_ptraSEOS0_.exit29.thread, %_ZNSt15__exception_ptr13exception_ptraSEOS0_.exit29, %47
  call void @_ZNSt13runtime_errorD1Ev(ptr noundef nonnull align 8 dereferenceable(16) %8) #21
  call void @llvm.lifetime.end.p0(i64 8, ptr nonnull %7) #21
  call void @__cxa_end_catch()
  br label %52

48:                                               ; preds = %41
  %49 = landingpad { ptr, i32 }
          cleanup
  call void @llvm.lifetime.end.p0(i64 8, ptr nonnull %7) #21
  invoke void @__cxa_end_catch()
          to label %53 unwind label %54

50:                                               ; preds = %23
  %51 = landingpad { ptr, i32 }
          cleanup
  call void @llvm.lifetime.end.p0(i64 8, ptr nonnull %11) #21
  invoke void @__cxa_end_catch()
          to label %53 unwind label %54

52:                                               ; preds = %15, %_ZNSt15__exception_ptr13exception_ptrD2Ev.exit31, %_ZNSt15__exception_ptr13exception_ptrD2Ev.exit25, %_ZNSt15__exception_ptr13exception_ptrD2Ev.exit
  %.0 = phi i32 [ 0, %15 ], [ -2, %_ZNSt15__exception_ptr13exception_ptrD2Ev.exit ], [ -4, %_ZNSt15__exception_ptr13exception_ptrD2Ev.exit25 ], [ -1, %_ZNSt15__exception_ptr13exception_ptrD2Ev.exit31 ]
  ret i32 %.0

53:                                               ; preds = %50, %48
  %.pn17 = phi { ptr, i32 } [ %49, %48 ], [ %51, %50 ]
  resume { ptr, i32 } %.pn17

54:                                               ; preds = %50, %48
  %55 = landingpad { ptr, i32 }
          catch ptr null
  %56 = extractvalue { ptr, i32 } %55, 0
  call void @__clang_call_terminate(ptr %56) #24
  unreachable
}